target datalayout = "e-m:e-p270:32:32-p271:32:32-p272:64:64-i64:64-i128:128-f80:128-n8:16:32:64-S128"
target triple = "x86_64-pc-linux-gnu"

%struct.AV1Common = type { %struct.CurrentFrame, %struct.aom_internal_error_info, i32, i32, i32, i32, i32, i32, i8, i8, [33 x i32], i32, ptr, ptr, [8 x i32], %struct.scale_factors, [8 x %struct.scale_factors], [8 x ptr], i32, i32, i32, %struct.FeatureFlags, %struct.CommonModeInfoParams, %struct.CommonQuantParams, %struct.segmentation, ptr, [8 x i8], %struct.loop_filter_info_n, %struct.loopfilter, [3 x %struct.RestorationInfo], ptr, ptr, %struct.yv12_buffer_config, %struct.CdefInfo, %struct.aom_film_grain_t, %struct.DeltaQInfo, [8 x %struct.WarpedMotionParams], %struct.SequenceHeader, ptr, ptr, %struct.CommonTileParams, ptr, %struct.CommonContexts, i32, [8 x i32], ptr, i32, [8 x i32], [8 x i8], i32, i32, i32, i32 }
%struct.CurrentFrame = type { i8, i8, i32, i32, i32, %struct.SkipModeInfo, i32, i32 }
%struct.SkipModeInfo = type { i32, i32, i32, i32 }
%struct.aom_internal_error_info = type { i32, i32, [200 x i8], i32, [1 x %struct.__jmp_buf_tag] }
%struct.__jmp_buf_tag = type { [8 x i64], i32, %struct.__sigset_t }
%struct.__sigset_t = type { [16 x i64] }
%struct.scale_factors = type { i32, i32, i32, i32, ptr, ptr }
%struct.FeatureFlags = type { i8, i8, i8, i8, i8, i8, i8, i8, i8, i8, i8, i8, i8, i8, i32, i32, i8 }
%struct.CommonModeInfoParams = type { i32, i32, i32, i32, i32, ptr, i32, i32, i8, ptr, i32, i32, ptr, ptr, ptr, ptr }
%struct.CommonQuantParams = type { i32, i32, i32, i32, i32, i32, [8 x [2 x i16]], [8 x [2 x i16]], [8 x [2 x i16]], [16 x [3 x [19 x ptr]]], [16 x [3 x [19 x ptr]]], [8 x [19 x ptr]], [8 x [19 x ptr]], [8 x [19 x ptr]], i8, i32, i32, i32 }
%struct.segmentation = type { i8, i8, i8, i8, [8 x [8 x i16]], [8 x i32], i32, i8 }
%struct.loop_filter_info_n = type { [64 x %struct.loop_filter_thresh], [3 x [8 x [2 x [8 x [2 x i8]]]]] }
%struct.loop_filter_thresh = type { [16 x i8], [16 x i8], [16 x i8] }
%struct.loopfilter = type { [2 x i32], i32, i32, i32, i8, i8, [8 x i8], [2 x i8], i32 }
%struct.RestorationInfo = type { i32, i32, i32, i32, i32, ptr, %struct.RestorationStripeBoundaries, i32 }
%struct.RestorationStripeBoundaries = type { ptr, ptr, i32, i32 }
%struct.yv12_buffer_config = type { %union.anon, %union.anon.0, %union.anon.2, %union.anon.4, %union.anon.6, %union.anon.8, i32, [3 x ptr], ptr, i32, ptr, i64, i32, i64, i32, i32, i32, i32, i32, i32, i8, i32, i32, i32, i32, i32, i32, ptr }
%union.anon = type { %struct.anon }
%struct.anon = type { i32, i32 }
%union.anon.0 = type { %struct.anon.1 }
%struct.anon.1 = type { i32, i32 }
%union.anon.2 = type { %struct.anon.3 }
%struct.anon.3 = type { i32, i32 }
%union.anon.4 = type { %struct.anon.5 }
%struct.anon.5 = type { i32, i32 }
%union.anon.6 = type { %struct.anon.7 }
%struct.anon.7 = type { i32, i32 }
%union.anon.8 = type { %struct.anon.9 }
%struct.anon.9 = type { ptr, ptr, ptr }
%struct.CdefInfo = type { i32, i32, [16 x i32], [16 x i32], i32 }
%struct.aom_film_grain_t = type { i32, i32, [14 x [2 x i32]], i32, [10 x [2 x i32]], i32, [10 x [2 x i32]], i32, i32, i32, [24 x i32], [25 x i32], [25 x i32], i32, i32, i32, i32, i32, i32, i32, i32, i32, i32, i32, i32, i16 }
%struct.DeltaQInfo = type { i32, i32, i32, i32, i32 }
%struct.WarpedMotionParams = type { [8 x i32], i16, i16, i16, i16, i8, i8 }
%struct.SequenceHeader = type { i32, i32, i32, i32, i8, i32, i32, i8, i32, i32, %struct.OrderHintInfo, i8, i8, i8, i8, i8, i8, i8, i8, i8, i8, i8, i8, i8, i8, i32, i8, i8, i32, i32, i32, i32, i32, i32, i32, i8, i8, i32, [32 x i32], i32, %struct.aom_timing, i8, %struct.aom_dec_model_info, i8, [32 x i8], [32 x i8], [33 x %struct.aom_dec_model_op_parameters] }
%struct.OrderHintInfo = type { i32, i32, i32, i32 }
%struct.aom_timing = type { i32, i32, i32, i32 }
%struct.aom_dec_model_info = type { i32, i32, i32, i32 }
%struct.aom_dec_model_op_parameters = type { i32, i64, i64, i32, i32, i32, i32, i32 }
%struct.CommonTileParams = type { i32, i32, i32, i32, i32, i32, i32, i32, i32, i32, i32, i32, i32, i32, i32, [65 x i32], [65 x i32], i32, i32 }
%struct.CommonContexts = type { ptr, [3 x ptr], ptr, i32, i32, i32 }
%struct.TileInfo = type { i32, i32, i32, i32, i32, i32 }
%struct.AV1PixelRect = type { i32, i32, i32, i32 }

; Function Attrs: nounwind uwtable
define internal i32 @av1_superres_scaled(ptr noundef %0) #0 {
  %2 = alloca ptr, align 8
  store ptr %0, ptr %2, align 8
  %3 = load ptr, ptr %2, align 8
  %4 = getelementptr inbounds nuw %struct.AV1Common, ptr %3, i32 0, i32 2
  %5 = load i32, ptr %4, align 8
  %6 = load ptr, ptr %2, align 8
  %7 = getelementptr inbounds nuw %struct.AV1Common, ptr %6, i32 0, i32 6
  %8 = load i32, ptr %7, align 8
  %9 = icmp eq i32 %5, %8
  %10 = xor i1 %9, true
  %11 = zext i1 %10 to i32
  ret i32 %11
}

; Function Attrs: nounwind uwtable
define hidden { i64, i64 } @av1_get_tile_rect(ptr noundef %0, ptr noundef %1, i32 noundef %2) #0 {
  %4 = alloca %struct.AV1PixelRect, align 4
  %5 = alloca ptr, align 8
  %6 = alloca ptr, align 8
  %7 = alloca i32, align 4
  %8 = alloca i32, align 4
  %9 = alloca i32, align 4
  %10 = alloca i32, align 4
  %11 = alloca i32, align 4
  store ptr %0, ptr %5, align 8
  store ptr %1, ptr %6, align 8
  store i32 %2, ptr %7, align 4
  %12 = load ptr, ptr %5, align 8
  %13 = getelementptr inbounds nuw %struct.TileInfo, ptr %12, i32 0, i32 2
  %14 = load i32, ptr %13, align 4
  %15 = mul nsw i32 %14, 4
  %16 = getelementptr inbounds nuw %struct.AV1PixelRect, ptr %4, i32 0, i32 0
  store i32 %15, ptr %16, align 4
  %17 = load ptr, ptr %5, align 8
  %18 = getelementptr inbounds nuw %struct.TileInfo, ptr %17, i32 0, i32 3
  %19 = load i32, ptr %18, align 4
  %20 = mul nsw i32 %19, 4
  %21 = getelementptr inbounds nuw %struct.AV1PixelRect, ptr %4, i32 0, i32 2
  store i32 %20, ptr %21, align 4
  %22 = load ptr, ptr %5, align 8
  %23 = getelementptr inbounds nuw %struct.TileInfo, ptr %22, i32 0, i32 0
  %24 = load i32, ptr %23, align 4
  %25 = mul nsw i32 %24, 4
  %26 = getelementptr inbounds nuw %struct.AV1PixelRect, ptr %4, i32 0, i32 1
  store i32 %25, ptr %26, align 4
  %27 = load ptr, ptr %5, align 8
  %28 = getelementptr inbounds nuw %struct.TileInfo, ptr %27, i32 0, i32 1
  %29 = load i32, ptr %28, align 4
  %30 = mul nsw i32 %29, 4
  %31 = getelementptr inbounds nuw %struct.AV1PixelRect, ptr %4, i32 0, i32 3
  store i32 %30, ptr %31, align 4
  %32 = load ptr, ptr %6, align 8
  %33 = call i32 @av1_superres_scaled(ptr noundef %32)
  %34 = icmp ne i32 %33, 0
  br i1 %34, label %35, label %48

35:                                               ; preds = %3
  %36 = getelementptr inbounds nuw %struct.AV1PixelRect, ptr %4, i32 0, i32 0
  %37 = getelementptr inbounds nuw %struct.AV1PixelRect, ptr %4, i32 0, i32 1
  %38 = load ptr, ptr %6, align 8
  %39 = getelementptr inbounds nuw %struct.AV1Common, ptr %38, i32 0, i32 8
  %40 = load i8, ptr %39, align 16
  %41 = zext i8 %40 to i32
  call void @av1_calculate_unscaled_superres_size(ptr noundef %36, ptr noundef %37, i32 noundef %41)
  %42 = getelementptr inbounds nuw %struct.AV1PixelRect, ptr %4, i32 0, i32 2
  %43 = getelementptr inbounds nuw %struct.AV1PixelRect, ptr %4, i32 0, i32 3
  %44 = load ptr, ptr %6, align 8
  %45 = getelementptr inbounds nuw %struct.AV1Common, ptr %44, i32 0, i32 8
  %46 = load i8, ptr %45, align 16
  %47 = zext i8 %46 to i32
  call void @av1_calculate_unscaled_superres_size(ptr noundef %42, ptr noundef %43, i32 noundef %47)
  br label %48

48:                                               ; preds = %35, %3
  %49 = load ptr, ptr %6, align 8
  %50 = getelementptr inbounds nuw %struct.AV1Common, ptr %49, i32 0, i32 6
  %51 = load i32, ptr %50, align 8
  store i32 %51, ptr %8, align 4
  %52 = load ptr, ptr %6, align 8
  %53 = getelementptr inbounds nuw %struct.AV1Common, ptr %52, i32 0, i32 7
  %54 = load i32, ptr %53, align 4
  store i32 %54, ptr %9, align 4
  %55 = getelementptr inbounds nuw %struct.AV1PixelRect, ptr %4, i32 0, i32 2
  %56 = load i32, ptr %55, align 4
  %57 = load i32, ptr %8, align 4
  %58 = icmp slt i32 %56, %57
  br i1 %58, label %59, label %62

59:                                               ; preds = %48
  %60 = getelementptr inbounds nuw %struct.AV1PixelRect, ptr %4, i32 0, i32 2
  %61 = load i32, ptr %60, align 4
  br label %64

62:                                               ; preds = %48
  %63 = load i32, ptr %8, align 4
  br label %64

64:                                               ; preds = %62, %59
  %65 = phi i32 [ %61, %59 ], [ %63, %62 ]
  %66 = getelementptr inbounds nuw %struct.AV1PixelRect, ptr %4, i32 0, i32 2
  store i32 %65, ptr %66, align 4
  %67 = getelementptr inbounds nuw %struct.AV1PixelRect, ptr %4, i32 0, i32 3
  %68 = load i32, ptr %67, align 4
  %69 = load i32, ptr %9, align 4
  %70 = icmp slt i32 %68, %69
  br i1 %70, label %71, label %74

71:                                               ; preds = %64
  %72 = getelementptr inbounds nuw %struct.AV1PixelRect, ptr %4, i32 0, i32 3
  %73 = load i32, ptr %72, align 4
  br label %76

74:                                               ; preds = %64
  %75 = load i32, ptr %9, align 4
  br label %76

76:                                               ; preds = %74, %71
  %77 = phi i32 [ %73, %71 ], [ %75, %74 ]
  %78 = getelementptr inbounds nuw %struct.AV1PixelRect, ptr %4, i32 0, i32 3
  store i32 %77, ptr %78, align 4
  %79 = load i32, ptr %7, align 4
  %80 = icmp ne i32 %79, 0
  br i1 %80, label %81, label %87

81:                                               ; preds = %76
  %82 = load ptr, ptr %6, align 8
  %83 = getelementptr inbounds nuw %struct.AV1Common, ptr %82, i32 0, i32 37
  %84 = getelementptr inbounds nuw %struct.SequenceHeader, ptr %83, i32 0, i32 32
  %85 = load i32, ptr %84, align 16
  %86 = icmp ne i32 %85, 0
  br label %87

87:                                               ; preds = %81, %76
  %88 = phi i1 [ false, %76 ], [ %86, %81 ]
  %89 = zext i1 %88 to i32
  store i32 %89, ptr %10, align 4
  %90 = load i32, ptr %7, align 4
  %91 = icmp ne i32 %90, 0
  br i1 %91, label %92, label %98

92:                                               ; preds = %87
  %93 = load ptr, ptr %6, align 8
  %94 = getelementptr inbounds nuw %struct.AV1Common, ptr %93, i32 0, i32 37
  %95 = getelementptr inbounds nuw %struct.SequenceHeader, ptr %94, i32 0, i32 33
  %96 = load i32, ptr %95, align 4
  %97 = icmp ne i32 %96, 0
  br label %98

98:                                               ; preds = %92, %87
  %99 = phi i1 [ false, %87 ], [ %97, %92 ]
  %100 = zext i1 %99 to i32
  store i32 %100, ptr %11, align 4
  %101 = getelementptr inbounds nuw %struct.AV1PixelRect, ptr %4, i32 0, i32 0
  %102 = load i32, ptr %101, align 4
  %103 = load i32, ptr %10, align 4
  %104 = shl i32 1, %103
  %105 = ashr i32 %104, 1
  %106 = add nsw i32 %102, %105
  %107 = load i32, ptr %10, align 4
  %108 = ashr i32 %106, %107
  %109 = getelementptr inbounds nuw %struct.AV1PixelRect, ptr %4, i32 0, i32 0
  store i32 %108, ptr %109, align 4
  %110 = getelementptr inbounds nuw %struct.AV1PixelRect, ptr %4, i32 0, i32 2
  %111 = load i32, ptr %110, align 4
  %112 = load i32, ptr %10, align 4
  %113 = shl i32 1, %112
  %114 = ashr i32 %113, 1
  %115 = add nsw i32 %111, %114
  %116 = load i32, ptr %10, align 4
  %117 = ashr i32 %115, %116
  %118 = getelementptr inbounds nuw %struct.AV1PixelRect, ptr %4, i32 0, i32 2
  store i32 %117, ptr %118, align 4
  %119 = getelementptr inbounds nuw %struct.AV1PixelRect, ptr %4, i32 0, i32 1
  %120 = load i32, ptr %119, align 4
  %121 = load i32, ptr %11, align 4
  %122 = shl i32 1, %121
  %123 = ashr i32 %122, 1
  %124 = add nsw i32 %120, %123
  %125 = load i32, ptr %11, align 4
  %126 = ashr i32 %124, %125
  %127 = getelementptr inbounds nuw %struct.AV1PixelRect, ptr %4, i32 0, i32 1
  store i32 %126, ptr %127, align 4
  %128 = getelementptr inbounds nuw %struct.AV1PixelRect, ptr %4, i32 0, i32 3
  %129 = load i32, ptr %128, align 4
  %130 = load i32, ptr %11, align 4
  %131 = shl i32 1, %130
  %132 = ashr i32 %131, 1
  %133 = add nsw i32 %129, %132
  %134 = load i32, ptr %11, align 4
  %135 = ashr i32 %133, %134
  %136 = getelementptr inbounds nuw %struct.AV1PixelRect, ptr %4, i32 0, i32 3
  store i32 %135, ptr %136, align 4
  %137 = load { i64, i64 }, ptr %4, align 4
  ret { i64, i64 } %137
}