; Function Attrs: nounwind uwtable
define hidden { i64, i64 } @av1_get_tile_rect(ptr nocapture noundef readonly %0, ptr nocapture noundef readonly %1, i32 noundef %2) local_unnamed_addr #3 {
  %4 = alloca %struct.AV1PixelRect, align 8
  %5 = getelementptr inbounds nuw i8, ptr %0, i64 8
  %6 = load i32, ptr %5, align 4
  %7 = shl nsw i32 %6, 2
  store i32 %7, ptr %4, align 8
  %8 = getelementptr inbounds nuw i8, ptr %0, i64 12
  %9 = load i32, ptr %8, align 4
  %10 = shl nsw i32 %9, 2
  %11 = getelementptr inbounds nuw i8, ptr %4, i64 8
  store i32 %10, ptr %11, align 8
  %12 = load i32, ptr %0, align 4
  %13 = shl nsw i32 %12, 2
  %14 = getelementptr inbounds nuw i8, ptr %4, i64 4
  store i32 %13, ptr %14, align 4
  %15 = getelementptr inbounds nuw i8, ptr %0, i64 4
  %16 = load i32, ptr %15, align 4
  %17 = shl nsw i32 %16, 2
  %18 = getelementptr inbounds nuw i8, ptr %4, i64 12
  store i32 %17, ptr %18, align 4
  %19 = getelementptr i8, ptr %1, i64 456
  %.val = load i32, ptr %19, align 8
  %20 = getelementptr i8, ptr %1, i64 472
  %.val25 = load i32, ptr %20, align 8
  %.not26 = icmp eq i32 %.val, %.val25
  br i1 %.not26, label %27, label %21

21:                                               ; preds = %3
  %22 = getelementptr inbounds nuw i8, ptr %1, i64 480
  %23 = load i8, ptr %22, align 16
  %24 = zext i8 %23 to i32
  call void @av1_calculate_unscaled_superres_size(ptr noundef nonnull %4, ptr noundef nonnull %14, i32 noundef %24) #6
  %25 = load i8, ptr %22, align 16
  %26 = zext i8 %25 to i32
  call void @av1_calculate_unscaled_superres_size(ptr noundef nonnull %11, ptr noundef nonnull %18, i32 noundef %26) #6
  %.pre = load i32, ptr %20, align 8
  %.pre27 = load i32, ptr %11, align 8
  %.pre28 = load i32, ptr %18, align 4
  br label %27

27:                                               ; preds = %21, %3
  %28 = phi i32 [ %.pre28, %21 ], [ %17, %3 ]
  %29 = phi i32 [ %.pre27, %21 ], [ %10, %3 ]
  %30 = phi i32 [ %.pre, %21 ], [ %.val, %3 ]
  %31 = getelementptr inbounds nuw i8, ptr %1, i64 476
  %32 = load i32, ptr %31, align 4
  %.not24 = icmp eq i32 %2, 0
  br i1 %.not24, label %.thread, label %33

33:                                               ; preds = %27
  %34 = getelementptr inbounds i8, ptr %1, i64 25280
  %35 = load i32, ptr %34, align 16
  %36 = icmp ne i32 %35, 0
  %37 = zext i1 %36 to i32
  %38 = getelementptr inbounds i8, ptr %1, i64 25284
  %39 = load i32, ptr %38, align 4
  %40 = icmp ne i32 %39, 0
  %41 = zext i1 %40 to i32
  br label %.thread

.thread:                                          ; preds = %27, %33
  %42 = phi i32 [ %37, %33 ], [ 0, %27 ]
  %43 = phi i32 [ %41, %33 ], [ 0, %27 ]
  %44 = call i32 @llvm.smin.i32(i32 %28, i32 %32)
  %45 = call i32 @llvm.smin.i32(i32 %29, i32 %30)
  %46 = load i32, ptr %4, align 8
  %47 = shl nuw nsw i32 1, %42
  %48 = lshr i32 %47, 1
  %49 = add nsw i32 %46, %48
  %50 = ashr i32 %49, %42
  store i32 %50, ptr %4, align 8
  %51 = add nsw i32 %48, %45
  %52 = ashr i32 %51, %42
  store i32 %52, ptr %11, align 8
  %53 = load i32, ptr %14, align 4
  %54 = shl nuw nsw i32 1, %43
  %55 = lshr i32 %54, 1
  %56 = add nsw i32 %53, %55
  %57 = ashr i32 %56, %43
  store i32 %57, ptr %14, align 4
  %58 = add nsw i32 %55, %44
  %59 = ashr i32 %58, %43
  store i32 %59, ptr %18, align 4
  %.fca.0.load = load i64, ptr %4, align 8
  %.fca.0.insert = insertvalue { i64, i64 } poison, i64 %.fca.0.load, 0
  %.fca.1.load = load i64, ptr %11, align 8
  %.fca.1.insert = insertvalue { i64, i64 } %.fca.0.insert, i64 %.fca.1.load, 1
  ret { i64, i64 } %.fca.1.insert
}